target datalayout = "e-m:e-p270:32:32-p271:32:32-p272:64:64-i64:64-i128:128-f80:128-n8:16:32:64-S128"
target triple = "x86_64-pc-linux-gnu"

%struct.pg_conn_host = type { i32, ptr, ptr, ptr, ptr }
%struct.pg_conn = type { ptr, ptr, ptr, ptr, ptr, ptr, ptr, ptr, ptr, ptr, ptr, ptr, ptr, ptr, ptr, ptr, ptr, ptr, ptr, ptr, ptr, ptr, ptr, ptr, ptr, ptr, ptr, ptr, ptr, ptr, ptr, ptr, ptr, ptr, ptr, ptr, ptr, ptr, ptr, ptr, ptr, ptr, ptr, i8, ptr, i32, %struct.PGNoticeHooks, ptr, i32, i32, i32, i32, i32, [6 x i8], i8, i8, i32, i8, i8, i32, i8, i32, ptr, ptr, i32, i32, ptr, ptr, ptr, ptr, ptr, i32, %struct.SockAddr, %struct.SockAddr, i32, i32, i8, i8, i8, i8, i8, i8, ptr, i8, i32, [1 x ptr], i8, i8, ptr, ptr, i32, i32, i32, i8, i8, i32, i32, ptr, i8, i64, ptr, i64, ptr, i32, i32, ptr, i32, i8, i32, i32, i32, i32, ptr, %struct.pg_prng_state, ptr, i32, i32, i32, i32, ptr, i32, i32, i32, i32, ptr, i32, ptr, i8, ptr, ptr, ptr, i32, i8, i8, i8, i8, i8, i8, i8, i8, %struct.PQExpBufferData, i32, %struct.PQExpBufferData }
%struct.PGNoticeHooks = type { ptr, ptr, ptr, ptr }
%struct.SockAddr = type { %struct.sockaddr_storage, i32 }
%struct.sockaddr_storage = type { i16, [118 x i8], i64 }
%struct.pg_prng_state = type { i64, i64 }
%struct.PQExpBufferData = type { ptr, i64, i64 }
%struct.AddrInfo = type { i32, %struct.SockAddr }

@.str = private unnamed_addr constant [27 x i8] c"connection pointer is NULL\00", align 1
@.str.1 = private unnamed_addr constant [20 x i8] c"connection not open\00", align 1
@.str.2 = private unnamed_addr constant [14 x i8] c"out of memory\00", align 1

; Function Attrs: nounwind uwtable
define ptr @PQcancelCreate(ptr noundef %0) #0 {
  %2 = alloca ptr, align 8
  %3 = alloca ptr, align 8
  %4 = alloca ptr, align 8
  %5 = alloca %struct.pg_conn_host, align 8
  %6 = alloca i32, align 4
  store ptr %0, ptr %3, align 8
  call void @llvm.lifetime.start.p0(i64 8, ptr %4) #10
  %7 = call ptr @pqMakeEmptyPGconn()
  store ptr %7, ptr %4, align 8
  call void @llvm.lifetime.start.p0(i64 40, ptr %5) #10
  %8 = load ptr, ptr %4, align 8
  %9 = icmp eq ptr %8, null
  br i1 %9, label %10, label %11

10:                                               ; preds = %1
  store ptr null, ptr %2, align 8
  store i32 1, ptr %6, align 4
  br label %202

11:                                               ; preds = %1
  %12 = load ptr, ptr %3, align 8
  %13 = icmp ne ptr %12, null
  br i1 %13, label %17, label %14

14:                                               ; preds = %11
  %15 = load ptr, ptr %4, align 8
  call void (ptr, ptr, ...) @libpq_append_conn_error(ptr noundef %15, ptr noundef @.str)
  %16 = load ptr, ptr %4, align 8
  store ptr %16, ptr %2, align 8
  store i32 1, ptr %6, align 4
  br label %202

17:                                               ; preds = %11
  %18 = load ptr, ptr %3, align 8
  %19 = getelementptr inbounds nuw %struct.pg_conn, ptr %18, i32 0, i32 71
  %20 = load i32, ptr %19, align 8
  %21 = icmp eq i32 %20, -1
  br i1 %21, label %22, label %25

22:                                               ; preds = %17
  %23 = load ptr, ptr %4, align 8
  call void (ptr, ptr, ...) @libpq_append_conn_error(ptr noundef %23, ptr noundef @.str.1)
  %24 = load ptr, ptr %4, align 8
  store ptr %24, ptr %2, align 8
  store i32 1, ptr %6, align 4
  br label %202

25:                                               ; preds = %17
  %26 = load ptr, ptr %4, align 8
  %27 = getelementptr inbounds nuw %struct.pg_conn, ptr %26, i32 0, i32 43
  store i8 1, ptr %27, align 8
  %28 = load ptr, ptr %3, align 8
  %29 = load ptr, ptr %4, align 8
  %30 = call zeroext i1 @pqCopyPGconn(ptr noundef %28, ptr noundef %29)
  br i1 %30, label %33, label %31

31:                                               ; preds = %25
  %32 = load ptr, ptr %4, align 8
  store ptr %32, ptr %2, align 8
  store i32 1, ptr %6, align 4
  br label %202

33:                                               ; preds = %25
  %34 = load ptr, ptr %4, align 8
  %35 = call zeroext i1 @pqConnectOptions2(ptr noundef %34)
  br i1 %35, label %38, label %36

36:                                               ; preds = %33
  %37 = load ptr, ptr %4, align 8
  store ptr %37, ptr %2, align 8
  store i32 1, ptr %6, align 4
  br label %202

38:                                               ; preds = %33
  %39 = load ptr, ptr %3, align 8
  %40 = getelementptr inbounds nuw %struct.pg_conn, ptr %39, i32 0, i32 103
  %41 = load i32, ptr %40, align 8
  %42 = load ptr, ptr %4, align 8
  %43 = getelementptr inbounds nuw %struct.pg_conn, ptr %42, i32 0, i32 103
  store i32 %41, ptr %43, align 8
  %44 = load ptr, ptr %3, align 8
  %45 = getelementptr inbounds nuw %struct.pg_conn, ptr %44, i32 0, i32 104
  %46 = load i32, ptr %45, align 4
  %47 = load ptr, ptr %4, align 8
  %48 = getelementptr inbounds nuw %struct.pg_conn, ptr %47, i32 0, i32 104
  store i32 %46, ptr %48, align 4
  %49 = load ptr, ptr %4, align 8
  call void @pqReleaseConnHosts(ptr noundef %49)
  %50 = load ptr, ptr %4, align 8
  %51 = getelementptr inbounds nuw %struct.pg_conn, ptr %50, i32 0, i32 64
  store i32 1, ptr %51, align 8
  %52 = load ptr, ptr %4, align 8
  %53 = getelementptr inbounds nuw %struct.pg_conn, ptr %52, i32 0, i32 95
  store i32 1, ptr %53, align 8
  %54 = load ptr, ptr %4, align 8
  %55 = getelementptr inbounds nuw %struct.pg_conn, ptr %54, i32 0, i32 64
  %56 = load i32, ptr %55, align 8
  %57 = sext i32 %56 to i64
  %58 = call noalias ptr @calloc(i64 noundef %57, i64 noundef 40) #11
  %59 = load ptr, ptr %4, align 8
  %60 = getelementptr inbounds nuw %struct.pg_conn, ptr %59, i32 0, i32 66
  store ptr %58, ptr %60, align 8
  %61 = load ptr, ptr %4, align 8
  %62 = getelementptr inbounds nuw %struct.pg_conn, ptr %61, i32 0, i32 66
  %63 = load ptr, ptr %62, align 8
  %64 = icmp ne ptr %63, null
  br i1 %64, label %66, label %65

65:                                               ; preds = %38
  br label %197

66:                                               ; preds = %38
  %67 = load ptr, ptr %3, align 8
  %68 = getelementptr inbounds nuw %struct.pg_conn, ptr %67, i32 0, i32 66
  %69 = load ptr, ptr %68, align 8
  %70 = load ptr, ptr %3, align 8
  %71 = getelementptr inbounds nuw %struct.pg_conn, ptr %70, i32 0, i32 65
  %72 = load i32, ptr %71, align 4
  %73 = sext i32 %72 to i64
  %74 = getelementptr inbounds %struct.pg_conn_host, ptr %69, i64 %73
  call void @llvm.memcpy.p0.p0.i64(ptr align 8 %5, ptr align 8 %74, i64 40, i1 false)
  %75 = getelementptr inbounds nuw %struct.pg_conn_host, ptr %5, i32 0, i32 1
  %76 = load ptr, ptr %75, align 8
  %77 = icmp ne ptr %76, null
  br i1 %77, label %78, label %96

78:                                               ; preds = %66
  %79 = getelementptr inbounds nuw %struct.pg_conn_host, ptr %5, i32 0, i32 1
  %80 = load ptr, ptr %79, align 8
  %81 = call noalias ptr @strdup(ptr noundef %80) #10
  %82 = load ptr, ptr %4, align 8
  %83 = getelementptr inbounds nuw %struct.pg_conn, ptr %82, i32 0, i32 66
  %84 = load ptr, ptr %83, align 8
  %85 = getelementptr inbounds %struct.pg_conn_host, ptr %84, i64 0
  %86 = getelementptr inbounds nuw %struct.pg_conn_host, ptr %85, i32 0, i32 1
  store ptr %81, ptr %86, align 8
  %87 = load ptr, ptr %4, align 8
  %88 = getelementptr inbounds nuw %struct.pg_conn, ptr %87, i32 0, i32 66
  %89 = load ptr, ptr %88, align 8
  %90 = getelementptr inbounds %struct.pg_conn_host, ptr %89, i64 0
  %91 = getelementptr inbounds nuw %struct.pg_conn_host, ptr %90, i32 0, i32 1
  %92 = load ptr, ptr %91, align 8
  %93 = icmp ne ptr %92, null
  br i1 %93, label %95, label %94

94:                                               ; preds = %78
  br label %197

95:                                               ; preds = %78
  br label %96

96:                                               ; preds = %95, %66
  %97 = getelementptr inbounds nuw %struct.pg_conn_host, ptr %5, i32 0, i32 2
  %98 = load ptr, ptr %97, align 8
  %99 = icmp ne ptr %98, null
  br i1 %99, label %100, label %118

100:                                              ; preds = %96
  %101 = getelementptr inbounds nuw %struct.pg_conn_host, ptr %5, i32 0, i32 2
  %102 = load ptr, ptr %101, align 8
  %103 = call noalias ptr @strdup(ptr noundef %102) #10
  %104 = load ptr, ptr %4, align 8
  %105 = getelementptr inbounds nuw %struct.pg_conn, ptr %104, i32 0, i32 66
  %106 = load ptr, ptr %105, align 8
  %107 = getelementptr inbounds %struct.pg_conn_host, ptr %106, i64 0
  %108 = getelementptr inbounds nuw %struct.pg_conn_host, ptr %107, i32 0, i32 2
  store ptr %103, ptr %108, align 8
  %109 = load ptr, ptr %4, align 8
  %110 = getelementptr inbounds nuw %struct.pg_conn, ptr %109, i32 0, i32 66
  %111 = load ptr, ptr %110, align 8
  %112 = getelementptr inbounds %struct.pg_conn_host, ptr %111, i64 0
  %113 = getelementptr inbounds nuw %struct.pg_conn_host, ptr %112, i32 0, i32 2
  %114 = load ptr, ptr %113, align 8
  %115 = icmp ne ptr %114, null
  br i1 %115, label %117, label %116

116:                                              ; preds = %100
  br label %197

117:                                              ; preds = %100
  br label %118

118:                                              ; preds = %117, %96
  %119 = getelementptr inbounds nuw %struct.pg_conn_host, ptr %5, i32 0, i32 3
  %120 = load ptr, ptr %119, align 8
  %121 = icmp ne ptr %120, null
  br i1 %121, label %122, label %140

122:                                              ; preds = %118
  %123 = getelementptr inbounds nuw %struct.pg_conn_host, ptr %5, i32 0, i32 3
  %124 = load ptr, ptr %123, align 8
  %125 = call noalias ptr @strdup(ptr noundef %124) #10
  %126 = load ptr, ptr %4, align 8
  %127 = getelementptr inbounds nuw %struct.pg_conn, ptr %126, i32 0, i32 66
  %128 = load ptr, ptr %127, align 8
  %129 = getelementptr inbounds %struct.pg_conn_host, ptr %128, i64 0
  %130 = getelementptr inbounds nuw %struct.pg_conn_host, ptr %129, i32 0, i32 3
  store ptr %125, ptr %130, align 8
  %131 = load ptr, ptr %4, align 8
  %132 = getelementptr inbounds nuw %struct.pg_conn, ptr %131, i32 0, i32 66
  %133 = load ptr, ptr %132, align 8
  %134 = getelementptr inbounds %struct.pg_conn_host, ptr %133, i64 0
  %135 = getelementptr inbounds nuw %struct.pg_conn_host, ptr %134, i32 0, i32 3
  %136 = load ptr, ptr %135, align 8
  %137 = icmp ne ptr %136, null
  br i1 %137, label %139, label %138

138:                                              ; preds = %122
  br label %197

139:                                              ; preds = %122
  br label %140

140:                                              ; preds = %139, %118
  %141 = getelementptr inbounds nuw %struct.pg_conn_host, ptr %5, i32 0, i32 4
  %142 = load ptr, ptr %141, align 8
  %143 = icmp ne ptr %142, null
  br i1 %143, label %144, label %162

144:                                              ; preds = %140
  %145 = getelementptr inbounds nuw %struct.pg_conn_host, ptr %5, i32 0, i32 4
  %146 = load ptr, ptr %145, align 8
  %147 = call noalias ptr @strdup(ptr noundef %146) #10
  %148 = load ptr, ptr %4, align 8
  %149 = getelementptr inbounds nuw %struct.pg_conn, ptr %148, i32 0, i32 66
  %150 = load ptr, ptr %149, align 8
  %151 = getelementptr inbounds %struct.pg_conn_host, ptr %150, i64 0
  %152 = getelementptr inbounds nuw %struct.pg_conn_host, ptr %151, i32 0, i32 4
  store ptr %147, ptr %152, align 8
  %153 = load ptr, ptr %4, align 8
  %154 = getelementptr inbounds nuw %struct.pg_conn, ptr %153, i32 0, i32 66
  %155 = load ptr, ptr %154, align 8
  %156 = getelementptr inbounds %struct.pg_conn_host, ptr %155, i64 0
  %157 = getelementptr inbounds nuw %struct.pg_conn_host, ptr %156, i32 0, i32 4
  %158 = load ptr, ptr %157, align 8
  %159 = icmp ne ptr %158, null
  br i1 %159, label %161, label %160

160:                                              ; preds = %144
  br label %197

161:                                              ; preds = %144
  br label %162

162:                                              ; preds = %161, %140
  %163 = load ptr, ptr %4, align 8
  %164 = getelementptr inbounds nuw %struct.pg_conn, ptr %163, i32 0, i32 95
  %165 = load i32, ptr %164, align 8
  %166 = sext i32 %165 to i64
  %167 = call noalias ptr @calloc(i64 noundef %166, i64 noundef 144) #11
  %168 = load ptr, ptr %4, align 8
  %169 = getelementptr inbounds nuw %struct.pg_conn, ptr %168, i32 0, i32 97
  store ptr %167, ptr %169, align 8
  %170 = load ptr, ptr %4, align 8
  %171 = getelementptr inbounds nuw %struct.pg_conn, ptr %170, i32 0, i32 97
  %172 = load ptr, ptr %171, align 8
  %173 = icmp ne ptr %172, null
  br i1 %173, label %175, label %174

174:                                              ; preds = %162
  br label %197

175:                                              ; preds = %162
  %176 = load ptr, ptr %4, align 8
  %177 = getelementptr inbounds nuw %struct.pg_conn, ptr %176, i32 0, i32 97
  %178 = load ptr, ptr %177, align 8
  %179 = getelementptr inbounds %struct.AddrInfo, ptr %178, i64 0
  %180 = getelementptr inbounds nuw %struct.AddrInfo, ptr %179, i32 0, i32 1
  %181 = load ptr, ptr %3, align 8
  %182 = getelementptr inbounds nuw %struct.pg_conn, ptr %181, i32 0, i32 73
  call void @llvm.memcpy.p0.p0.i64(ptr align 8 %180, ptr align 8 %182, i64 136, i1 false)
  %183 = load ptr, ptr %3, align 8
  %184 = getelementptr inbounds nuw %struct.pg_conn, ptr %183, i32 0, i32 73
  %185 = getelementptr inbounds nuw %struct.SockAddr, ptr %184, i32 0, i32 0
  %186 = getelementptr inbounds nuw %struct.sockaddr_storage, ptr %185, i32 0, i32 0
  %187 = load i16, ptr %186, align 8
  %188 = zext i16 %187 to i32
  %189 = load ptr, ptr %4, align 8
  %190 = getelementptr inbounds nuw %struct.pg_conn, ptr %189, i32 0, i32 97
  %191 = load ptr, ptr %190, align 8
  %192 = getelementptr inbounds %struct.AddrInfo, ptr %191, i64 0
  %193 = getelementptr inbounds nuw %struct.AddrInfo, ptr %192, i32 0, i32 0
  store i32 %188, ptr %193, align 8
  %194 = load ptr, ptr %4, align 8
  %195 = getelementptr inbounds nuw %struct.pg_conn, ptr %194, i32 0, i32 50
  store i32 14, ptr %195, align 8
  %196 = load ptr, ptr %4, align 8
  store ptr %196, ptr %2, align 8
  store i32 1, ptr %6, align 4
  br label %202

197:                                              ; preds = %174, %160, %138, %116, %94, %65
  %198 = load ptr, ptr %4, align 8
  %199 = getelementptr inbounds nuw %struct.pg_conn, ptr %198, i32 0, i32 50
  store i32 1, ptr %199, align 8
  %200 = load ptr, ptr %4, align 8
  call void (ptr, ptr, ...) @libpq_append_conn_error(ptr noundef %200, ptr noundef @.str.2)
  %201 = load ptr, ptr %4, align 8
  store ptr %201, ptr %2, align 8
  store i32 1, ptr %6, align 4
  br label %202

202:                                              ; preds = %197, %175, %36, %31, %22, %14, %10
  call void @llvm.lifetime.end.p0(i64 40, ptr %5) #10
  call void @llvm.lifetime.end.p0(i64 8, ptr %4) #10
  %203 = load ptr, ptr %2, align 8
  ret ptr %203
}