; Function Attrs: nounwind uwtable
define ptr @PQcancelCreate(ptr noundef %0) local_unnamed_addr #0 {
  %2 = tail call ptr @pqMakeEmptyPGconn() #16
  %3 = icmp eq ptr %2, null
  br i1 %3, label %60, label %4

4:                                                ; preds = %1
  %.not = icmp eq ptr %0, null
  br i1 %.not, label %5, label %6

5:                                                ; preds = %4
  tail call void (ptr, ptr, ...) @libpq_append_conn_error(ptr noundef nonnull %2, ptr noundef nonnull @.str) #16
  br label %60

6:                                                ; preds = %4
  %7 = getelementptr inbounds nuw i8, ptr %0, i64 520
  %8 = load i32, ptr %7, align 8
  %9 = icmp eq i32 %8, -1
  br i1 %9, label %10, label %11

10:                                               ; preds = %6
  tail call void (ptr, ptr, ...) @libpq_append_conn_error(ptr noundef nonnull %2, ptr noundef nonnull @.str.1) #16
  br label %60

11:                                               ; preds = %6
  %12 = getelementptr inbounds nuw i8, ptr %2, i64 344
  store i8 1, ptr %12, align 8
  %13 = tail call zeroext i1 @pqCopyPGconn(ptr noundef nonnull %0, ptr noundef nonnull %2) #16
  br i1 %13, label %14, label %60

14:                                               ; preds = %11
  %15 = tail call zeroext i1 @pqConnectOptions2(ptr noundef nonnull %2) #16
  br i1 %15, label %16, label %60

16:                                               ; preds = %14
  %17 = getelementptr inbounds nuw i8, ptr %0, i64 936
  %18 = load i32, ptr %17, align 8
  %19 = getelementptr inbounds nuw i8, ptr %2, i64 936
  store i32 %18, ptr %19, align 8
  %20 = getelementptr inbounds nuw i8, ptr %0, i64 940
  %21 = load i32, ptr %20, align 4
  %22 = getelementptr inbounds nuw i8, ptr %2, i64 940
  store i32 %21, ptr %22, align 4
  tail call void @pqReleaseConnHosts(ptr noundef nonnull %2) #16
  %23 = getelementptr inbounds nuw i8, ptr %2, i64 472
  store i32 1, ptr %23, align 8
  %24 = getelementptr inbounds nuw i8, ptr %2, i64 880
  store i32 1, ptr %24, align 8
  %25 = tail call noalias dereferenceable_or_null(40) ptr @calloc(i64 noundef 1, i64 noundef 40) #17
  %26 = getelementptr inbounds nuw i8, ptr %2, i64 480
  store ptr %25, ptr %26, align 8
  %.not53 = icmp eq ptr %25, null
  br i1 %.not53, label %58, label %27

27:                                               ; preds = %16
  %28 = getelementptr inbounds nuw i8, ptr %0, i64 480
  %29 = load ptr, ptr %28, align 8
  %30 = getelementptr inbounds nuw i8, ptr %0, i64 476
  %31 = load i32, ptr %30, align 4
  %32 = sext i32 %31 to i64
  %33 = getelementptr inbounds %struct.pg_conn_host, ptr %29, i64 %32
  %.sroa.3.0..sroa_idx = getelementptr inbounds nuw i8, ptr %33, i64 8
  %.sroa.3.0.copyload = load ptr, ptr %.sroa.3.0..sroa_idx, align 8
  %.sroa.5.0..sroa_idx = getelementptr inbounds nuw i8, ptr %33, i64 16
  %.sroa.5.0.copyload = load ptr, ptr %.sroa.5.0..sroa_idx, align 8
  %.sroa.7.0..sroa_idx = getelementptr inbounds nuw i8, ptr %33, i64 24
  %.sroa.7.0.copyload = load ptr, ptr %.sroa.7.0..sroa_idx, align 8
  %.sroa.9.0..sroa_idx = getelementptr inbounds nuw i8, ptr %33, i64 32
  %.sroa.9.0.copyload = load ptr, ptr %.sroa.9.0..sroa_idx, align 8
  %.not54 = icmp eq ptr %.sroa.3.0.copyload, null
  br i1 %.not54, label %37, label %34

34:                                               ; preds = %27
  %35 = tail call noalias ptr @strdup(ptr noundef nonnull %.sroa.3.0.copyload) #16
  %36 = getelementptr inbounds nuw i8, ptr %25, i64 8
  store ptr %35, ptr %36, align 8
  %.not55 = icmp eq ptr %35, null
  br i1 %.not55, label %58, label %37

37:                                               ; preds = %34, %27
  %.not56 = icmp eq ptr %.sroa.5.0.copyload, null
  br i1 %.not56, label %41, label %38

38:                                               ; preds = %37
  %39 = tail call noalias ptr @strdup(ptr noundef nonnull %.sroa.5.0.copyload) #16
  %40 = getelementptr inbounds nuw i8, ptr %25, i64 16
  store ptr %39, ptr %40, align 8
  %.not57 = icmp eq ptr %39, null
  br i1 %.not57, label %58, label %41

41:                                               ; preds = %38, %37
  %.not58 = icmp eq ptr %.sroa.7.0.copyload, null
  br i1 %.not58, label %45, label %42

42:                                               ; preds = %41
  %43 = tail call noalias ptr @strdup(ptr noundef nonnull %.sroa.7.0.copyload) #16
  %44 = getelementptr inbounds nuw i8, ptr %25, i64 24
  store ptr %43, ptr %44, align 8
  %.not59 = icmp eq ptr %43, null
  br i1 %.not59, label %58, label %45

45:                                               ; preds = %42, %41
  %.not60 = icmp eq ptr %.sroa.9.0.copyload, null
  br i1 %.not60, label %49, label %46

46:                                               ; preds = %45
  %47 = tail call noalias ptr @strdup(ptr noundef nonnull %.sroa.9.0.copyload) #16
  %48 = getelementptr inbounds nuw i8, ptr %25, i64 32
  store ptr %47, ptr %48, align 8
  %.not61 = icmp eq ptr %47, null
  br i1 %.not61, label %58, label %49

49:                                               ; preds = %46, %45
  %50 = tail call noalias dereferenceable_or_null(144) ptr @calloc(i64 noundef 1, i64 noundef 144) #17
  %51 = getelementptr inbounds nuw i8, ptr %2, i64 888
  store ptr %50, ptr %51, align 8
  %.not62 = icmp eq ptr %50, null
  br i1 %.not62, label %58, label %52

52:                                               ; preds = %49
  %53 = getelementptr inbounds nuw i8, ptr %50, i64 8
  %54 = getelementptr inbounds nuw i8, ptr %0, i64 664
  tail call void @llvm.memcpy.p0.p0.i64(ptr noundef nonnull align 8 dereferenceable(136) %53, ptr noundef nonnull align 8 dereferenceable(136) %54, i64 136, i1 false)
  %55 = load i16, ptr %54, align 8
  %56 = zext i16 %55 to i32
  store i32 %56, ptr %50, align 8
  %57 = getelementptr inbounds nuw i8, ptr %2, i64 416
  store i32 14, ptr %57, align 8
  br label %60

58:                                               ; preds = %49, %46, %42, %38, %34, %16
  %59 = getelementptr inbounds nuw i8, ptr %2, i64 416
  store i32 1, ptr %59, align 8
  tail call void (ptr, ptr, ...) @libpq_append_conn_error(ptr noundef nonnull %2, ptr noundef nonnull @.str.2) #16
  br label %60

60:                                               ; preds = %14, %11, %1, %58, %52, %10, %5
  ret ptr %2
}